target datalayout = "e-m:e-p270:32:32-p271:32:32-p272:64:64-i64:64-i128:128-f80:128-n8:16:32:64-S128"
target triple = "x86_64-pc-linux-gnu"

; Function Attrs: nounwind uwtable
define internal i32 @selective_color_direct_relative_8(ptr noundef %0, ptr noundef %1, i32 noundef %2, i32 noundef %3) #0 {
  %5 = alloca ptr, align 8
  %6 = alloca ptr, align 8
  %7 = alloca i32, align 4
  %8 = alloca i32, align 4
  store ptr %0, ptr %5, align 8, !tbaa !23
  store ptr %1, ptr %6, align 8, !tbaa !46
  store i32 %2, ptr %7, align 4, !tbaa !37
  store i32 %3, ptr %8, align 4, !tbaa !37
  %9 = load ptr, ptr %5, align 8, !tbaa !23
  %10 = load ptr, ptr %6, align 8, !tbaa !46
  %11 = load i32, ptr %7, align 4, !tbaa !37
  %12 = load i32, ptr %8, align 4, !tbaa !37
  %13 = call i32 @selective_color_8(ptr noundef %9, ptr noundef %10, i32 noundef %11, i32 noundef %12, i32 noundef 1, i32 noundef 1)
  ret i32 %13
}